; Function Attrs: nounwind uwtable
define ptr @l_Lake_recFetchAcyclic___rarg(ptr noundef %0, ptr noundef %1, ptr noundef %2, ptr noundef %3, ptr noundef %4, ptr noundef %5) #0 {
  tail call void @lean_inc_heartbeat() #3
  %7 = tail call noalias ptr @mi_malloc_small(i64 noundef 64) #3
  %8 = icmp eq ptr %7, null
  br i1 %8, label %9, label %lean_alloc_closure.exit

9:                                                ; preds = %6
  tail call void @lean_internal_panic_out_of_memory() #4
  unreachable

lean_alloc_closure.exit:                          ; preds = %6
  %10 = getelementptr inbounds nuw i8, ptr %7, i64 4
  store i32 1, ptr %7, align 4, !tbaa !4
  store i32 -184549312, ptr %10, align 4
  %11 = getelementptr inbounds nuw i8, ptr %7, i64 8
  store ptr @l_Lake_recFetchAcyclic___rarg___lambda__5, ptr %11, align 8, !tbaa !10
  %12 = getelementptr inbounds nuw i8, ptr %7, i64 16
  store i16 7, ptr %12, align 8, !tbaa !12
  %13 = getelementptr inbounds nuw i8, ptr %7, i64 18
  store i16 5, ptr %13, align 2, !tbaa !12
  %14 = getelementptr inbounds nuw i8, ptr %7, i64 24
  store ptr %3, ptr %14, align 8, !tbaa !10
  %15 = getelementptr inbounds nuw i8, ptr %7, i64 32
  store ptr %1, ptr %15, align 8, !tbaa !10
  %16 = getelementptr inbounds nuw i8, ptr %7, i64 40
  store ptr %2, ptr %16, align 8, !tbaa !10
  %17 = getelementptr inbounds nuw i8, ptr %7, i64 48
  store ptr %4, ptr %17, align 8, !tbaa !10
  %18 = getelementptr inbounds nuw i8, ptr %7, i64 56
  store ptr %0, ptr %18, align 8, !tbaa !10
  %19 = ptrtoint ptr %7 to i64
  %20 = and i64 %19, 1
  %.not.i = icmp eq i64 %20, 0
  br i1 %.not.i, label %21, label %lean_inc.exit.i

21:                                               ; preds = %lean_alloc_closure.exit
  store i32 2, ptr %7, align 4, !tbaa !4
  br label %lean_inc.exit.i

lean_inc.exit.i:                                  ; preds = %21, %lean_alloc_closure.exit
  tail call void @lean_inc_heartbeat() #3
  %22 = tail call noalias ptr @mi_malloc_small(i64 noundef 32) #3
  %23 = icmp eq ptr %22, null
  br i1 %23, label %24, label %l_Lake_recFetch___rarg.exit

24:                                               ; preds = %lean_inc.exit.i
  tail call void @lean_internal_panic_out_of_memory() #4
  unreachable

l_Lake_recFetch___rarg.exit:                      ; preds = %lean_inc.exit.i
  %25 = getelementptr inbounds nuw i8, ptr %22, i64 4
  store i32 1, ptr %22, align 4, !tbaa !4
  store i32 -184549344, ptr %25, align 4
  %26 = getelementptr inbounds nuw i8, ptr %22, i64 8
  store ptr @l_Lake_recFetch___rarg, ptr %26, align 8, !tbaa !10
  %27 = getelementptr inbounds nuw i8, ptr %22, i64 16
  store i16 2, ptr %27, align 8, !tbaa !12
  %28 = getelementptr inbounds nuw i8, ptr %22, i64 18
  store i16 1, ptr %28, align 2, !tbaa !12
  %29 = getelementptr inbounds nuw i8, ptr %22, i64 24
  store ptr %7, ptr %29, align 8, !tbaa !10
  %30 = tail call ptr @lean_apply_2(ptr noundef nonnull %7, ptr noundef %5, ptr noundef nonnull %22) #3
  ret ptr %30
}